target datalayout = "e-m:e-p270:32:32-p271:32:32-p272:64:64-i64:64-i128:128-f80:128-n8:16:32:64-S128"
target triple = "x86_64-pc-linux-gnu"

%struct.dictEntry = type { ptr, %union.anon, ptr }
%union.anon = type { ptr }
%struct.dictEntryNoValue = type { ptr, ptr }

; Function Attrs: inlinehint nounwind uwtable
define internal ptr @decodeEntryNoValue(ptr noundef %0) #11 {
  %2 = alloca ptr, align 8
  store ptr %0, ptr %2, align 8, !tbaa !36
  %3 = load ptr, ptr %2, align 8, !tbaa !36
  %4 = call ptr @decodeMaskedPtr(ptr noundef %3)
  ret ptr %4
}

; Function Attrs: inlinehint nounwind uwtable
define internal i32 @entryIsNoValue(ptr noundef %0) #11 {
  %2 = alloca ptr, align 8
  store ptr %0, ptr %2, align 8, !tbaa !36
  %3 = load ptr, ptr %2, align 8, !tbaa !36
  %4 = ptrtoint ptr %3 to i64
  %5 = and i64 %4, 7
  %6 = icmp eq i64 %5, 4
  %7 = zext i1 %6 to i32
  ret i32 %7
}

; Function Attrs: inlinehint nounwind uwtable
define internal ptr @decodeMaskedPtr(ptr noundef %0) #11 {
  %2 = alloca ptr, align 8
  store ptr %0, ptr %2, align 8, !tbaa !36
  %3 = load ptr, ptr %2, align 8, !tbaa !36
  %4 = ptrtoint ptr %3 to i64
  %5 = and i64 %4, -8
  %6 = inttoptr i64 %5 to ptr
  ret ptr %6
}

; Function Attrs: nounwind uwtable
define dso_local ptr @dictGetKey(ptr noundef %0) #0 {
  %2 = alloca ptr, align 8
  %3 = alloca ptr, align 8
  store ptr %0, ptr %3, align 8, !tbaa !36
  %4 = load ptr, ptr %3, align 8, !tbaa !36
  %5 = ptrtoint ptr %4 to i64
  %6 = and i64 %5, 1
  %7 = icmp ne i64 %6, 0
  br i1 %7, label %8, label %10

8:                                                ; preds = %1
  %9 = load ptr, ptr %3, align 8, !tbaa !36
  store ptr %9, ptr %2, align 8
  br label %31

10:                                               ; preds = %1
  %11 = load ptr, ptr %3, align 8, !tbaa !36
  %12 = ptrtoint ptr %11 to i64
  %13 = and i64 %12, 2
  %14 = icmp ne i64 %13, 0
  br i1 %14, label %15, label %18

15:                                               ; preds = %10
  %16 = load ptr, ptr %3, align 8, !tbaa !36
  %17 = call ptr @decodeMaskedPtr(ptr noundef %16)
  store ptr %17, ptr %2, align 8
  br label %31

18:                                               ; preds = %10
  %19 = load ptr, ptr %3, align 8, !tbaa !36
  %20 = call i32 @entryIsNoValue(ptr noundef %19)
  %21 = icmp ne i32 %20, 0
  br i1 %21, label %22, label %27

22:                                               ; preds = %18
  %23 = load ptr, ptr %3, align 8, !tbaa !36
  %24 = call ptr @decodeEntryNoValue(ptr noundef %23)
  %25 = getelementptr inbounds nuw %struct.dictEntryNoValue, ptr %24, i32 0, i32 0
  %26 = load ptr, ptr %25, align 8, !tbaa !54
  store ptr %26, ptr %2, align 8
  br label %31

27:                                               ; preds = %18
  %28 = load ptr, ptr %3, align 8, !tbaa !36
  %29 = getelementptr inbounds nuw %struct.dictEntry, ptr %28, i32 0, i32 0
  %30 = load ptr, ptr %29, align 8, !tbaa !51
  store ptr %30, ptr %2, align 8
  br label %31

31:                                               ; preds = %27, %22, %15, %8
  %32 = load ptr, ptr %2, align 8
  ret ptr %32
}