; Function Attrs: mustprogress nofree norecurse nosync nounwind willreturn memory(read, inaccessiblemem: none) uwtable
define dso_local ptr @dictGetKey(ptr noundef %0) local_unnamed_addr #12 {
  %2 = ptrtoint ptr %0 to i64
  %3 = and i64 %2, 1
  %.not = icmp eq i64 %3, 0
  br i1 %.not, label %4, label %17

4:                                                ; preds = %1
  %5 = and i64 %2, 2
  %.not8 = icmp eq i64 %5, 0
  br i1 %.not8, label %9, label %6

6:                                                ; preds = %4
  %7 = and i64 %2, -8
  %8 = inttoptr i64 %7 to ptr
  br label %17

9:                                                ; preds = %4
  %10 = and i64 %2, 4
  %.not9 = icmp eq i64 %10, 0
  br i1 %.not9, label %15, label %11

11:                                               ; preds = %9
  %12 = and i64 %2, -8
  %13 = inttoptr i64 %12 to ptr
  %14 = load ptr, ptr %13, align 8, !tbaa !39
  br label %17

15:                                               ; preds = %9
  %16 = load ptr, ptr %0, align 8, !tbaa !40
  br label %17

17:                                               ; preds = %1, %15, %11, %6
  %.0 = phi ptr [ %8, %6 ], [ %14, %11 ], [ %16, %15 ], [ %0, %1 ]
  ret ptr %.0
}